target datalayout = "e-m:e-p270:32:32-p271:32:32-p272:64:64-i64:64-i128:128-f80:128-n8:16:32:64-S128"
target triple = "x86_64-unknown-linux-gnu"

@.str.15 = private unnamed_addr constant [84 x i8] c"#!/bin/sh\0A#V2.0 Format\0Amodprobe cloop file=$0 && mount -r -t iso9660 /dev/cloop $1\0A\00", align 1

; Function Attrs: nounwind sspstrong uwtable
define internal i32 @cloop_probe(ptr noundef %buf, i32 noundef %buf_size, ptr noundef %filename) #0 {
entry:
  %retval = alloca i32, align 4
  %buf.addr = alloca ptr, align 8
  %buf_size.addr = alloca i32, align 4
  %filename.addr = alloca ptr, align 8
  %magic_version_2_0 = alloca ptr, align 8
  %length = alloca i32, align 4
  store ptr %buf, ptr %buf.addr, align 8
  store i32 %buf_size, ptr %buf_size.addr, align 4
  store ptr %filename, ptr %filename.addr, align 8
  store ptr @.str.15, ptr %magic_version_2_0, align 8
  %0 = load ptr, ptr %magic_version_2_0, align 8
  %call = call i64 @strlen(ptr noundef %0) #8
  %conv = trunc i64 %call to i32
  store i32 %conv, ptr %length, align 4
  %1 = load i32, ptr %length, align 4
  %2 = load i32, ptr %buf_size.addr, align 4
  %cmp = icmp sgt i32 %1, %2
  br i1 %cmp, label %if.then, label %if.end

if.then:                                          ; preds = %entry
  %3 = load i32, ptr %buf_size.addr, align 4
  store i32 %3, ptr %length, align 4
  br label %if.end

if.end:                                           ; preds = %if.then, %entry
  %4 = load ptr, ptr %magic_version_2_0, align 8
  %5 = load ptr, ptr %buf.addr, align 8
  %6 = load i32, ptr %length, align 4
  %conv2 = sext i32 %6 to i64
  %call3 = call i32 @memcmp(ptr noundef %4, ptr noundef %5, i64 noundef %conv2) #8
  %tobool = icmp ne i32 %call3, 0
  br i1 %tobool, label %if.end5, label %if.then4

if.then4:                                         ; preds = %if.end
  store i32 2, ptr %retval, align 4
  br label %return

if.end5:                                          ; preds = %if.end
  store i32 0, ptr %retval, align 4
  br label %return

return:                                           ; preds = %if.end5, %if.then4
  %7 = load i32, ptr %retval, align 4
  ret i32 %7
}