; Function Attrs: mustprogress nofree nounwind sspstrong willreturn memory(argmem: read) uwtable
define internal range(i32 0, 3) i32 @cloop_probe(ptr noundef readonly captures(none) %buf, i32 noundef %buf_size, ptr readnone captures(none) %filename) #3 {
entry:
  %narrow = tail call i32 @llvm.smin.i32(i32 %buf_size, i32 83)
  %spec.select = sext i32 %narrow to i64
  %bcmp = tail call i32 @bcmp(ptr nonnull @.str.15, ptr %buf, i64 %spec.select)
  %tobool.not = icmp eq i32 %bcmp, 0
  %retval.0 = select i1 %tobool.not, i32 2, i32 0
  ret i32 %retval.0
}